target datalayout = "e-m:e-p270:32:32-p271:32:32-p272:64:64-i64:64-i128:128-f80:128-n8:16:32:64-S128"
target triple = "x86_64-pc-linux-gnu"

%"class.cv::Rect_" = type { i32, i32, i32, i32 }

; Function Attrs: inlinehint mustprogress nounwind uwtable
define linkonce_odr hidden void @_ZN2cv5Rect_IiEC2Ev(ptr noundef nonnull align 4 dereferenceable(16) %0) unnamed_addr #5 comdat align 2 {
  %2 = alloca ptr, align 8
  store ptr %0, ptr %2, align 8, !tbaa !145
  %3 = load ptr, ptr %2, align 8
  %4 = getelementptr inbounds nuw %"class.cv::Rect_", ptr %3, i32 0, i32 0
  store i32 0, ptr %4, align 4, !tbaa !139
  %5 = getelementptr inbounds nuw %"class.cv::Rect_", ptr %3, i32 0, i32 1
  store i32 0, ptr %5, align 4, !tbaa !142
  %6 = getelementptr inbounds nuw %"class.cv::Rect_", ptr %3, i32 0, i32 2
  store i32 0, ptr %6, align 4, !tbaa !141
  %7 = getelementptr inbounds nuw %"class.cv::Rect_", ptr %3, i32 0, i32 3
  store i32 0, ptr %7, align 4, !tbaa !143
  ret void
}

; Function Attrs: inlinehint mustprogress nounwind uwtable
define linkonce_odr hidden void @_ZN2cv5Rect_IiEC2Eiiii(ptr noundef nonnull align 4 dereferenceable(16) %0, i32 noundef %1, i32 noundef %2, i32 noundef %3, i32 noundef %4) unnamed_addr #5 comdat align 2 {
  %6 = alloca ptr, align 8
  %7 = alloca i32, align 4
  %8 = alloca i32, align 4
  %9 = alloca i32, align 4
  %10 = alloca i32, align 4
  store ptr %0, ptr %6, align 8, !tbaa !145
  store i32 %1, ptr %7, align 4, !tbaa !12
  store i32 %2, ptr %8, align 4, !tbaa !12
  store i32 %3, ptr %9, align 4, !tbaa !12
  store i32 %4, ptr %10, align 4, !tbaa !12
  %11 = load ptr, ptr %6, align 8
  %12 = getelementptr inbounds nuw %"class.cv::Rect_", ptr %11, i32 0, i32 0
  %13 = load i32, ptr %7, align 4, !tbaa !12
  store i32 %13, ptr %12, align 4, !tbaa !139
  %14 = getelementptr inbounds nuw %"class.cv::Rect_", ptr %11, i32 0, i32 1
  %15 = load i32, ptr %8, align 4, !tbaa !12
  store i32 %15, ptr %14, align 4, !tbaa !142
  %16 = getelementptr inbounds nuw %"class.cv::Rect_", ptr %11, i32 0, i32 2
  %17 = load i32, ptr %9, align 4, !tbaa !12
  store i32 %17, ptr %16, align 4, !tbaa !141
  %18 = getelementptr inbounds nuw %"class.cv::Rect_", ptr %11, i32 0, i32 3
  %19 = load i32, ptr %10, align 4, !tbaa !12
  store i32 %19, ptr %18, align 4, !tbaa !143
  ret void
}

; Function Attrs: inlinehint mustprogress nounwind uwtable
define linkonce_odr noundef nonnull align 4 dereferenceable(4) ptr @_ZSt3minIiERKT_S2_S2_(ptr noundef nonnull align 4 dereferenceable(4) %0, ptr noundef nonnull align 4 dereferenceable(4) %1) #5 comdat {
  %3 = alloca ptr, align 8
  %4 = alloca ptr, align 8
  %5 = alloca ptr, align 8
  store ptr %0, ptr %4, align 8, !tbaa !83
  store ptr %1, ptr %5, align 8, !tbaa !83
  %6 = load ptr, ptr %5, align 8, !tbaa !83
  %7 = load i32, ptr %6, align 4, !tbaa !12
  %8 = load ptr, ptr %4, align 8, !tbaa !83
  %9 = load i32, ptr %8, align 4, !tbaa !12
  %10 = icmp slt i32 %7, %9
  br i1 %10, label %11, label %13

11:                                               ; preds = %2
  %12 = load ptr, ptr %5, align 8, !tbaa !83
  store ptr %12, ptr %3, align 8
  br label %15

13:                                               ; preds = %2
  %14 = load ptr, ptr %4, align 8, !tbaa !83
  store ptr %14, ptr %3, align 8
  br label %15

15:                                               ; preds = %13, %11
  %16 = load ptr, ptr %3, align 8
  ret ptr %16
}

; Function Attrs: inlinehint mustprogress nounwind uwtable
define linkonce_odr noundef nonnull align 4 dereferenceable(4) ptr @_ZSt3maxIiERKT_S2_S2_(ptr noundef nonnull align 4 dereferenceable(4) %0, ptr noundef nonnull align 4 dereferenceable(4) %1) #5 comdat {
  %3 = alloca ptr, align 8
  %4 = alloca ptr, align 8
  %5 = alloca ptr, align 8
  store ptr %0, ptr %4, align 8, !tbaa !83
  store ptr %1, ptr %5, align 8, !tbaa !83
  %6 = load ptr, ptr %4, align 8, !tbaa !83
  %7 = load i32, ptr %6, align 4, !tbaa !12
  %8 = load ptr, ptr %5, align 8, !tbaa !83
  %9 = load i32, ptr %8, align 4, !tbaa !12
  %10 = icmp slt i32 %7, %9
  br i1 %10, label %11, label %13

11:                                               ; preds = %2
  %12 = load ptr, ptr %5, align 8, !tbaa !83
  store ptr %12, ptr %3, align 8
  br label %15

13:                                               ; preds = %2
  %14 = load ptr, ptr %4, align 8, !tbaa !83
  store ptr %14, ptr %3, align 8
  br label %15

15:                                               ; preds = %13, %11
  %16 = load ptr, ptr %3, align 8
  ret ptr %16
}

; Function Attrs: mustprogress uwtable
define { i64, i64 } @_ZN2cv20getValidDisparityROIENS_5Rect_IiEES1_iii(i64 %0, i64 %1, i64 %2, i64 %3, i32 noundef %4, i32 noundef %5, i32 noundef %6) #4 {
  %8 = alloca %"class.cv::Rect_", align 4
  %9 = alloca %"class.cv::Rect_", align 4
  %10 = alloca %"class.cv::Rect_", align 4
  %11 = alloca i32, align 4
  %12 = alloca i32, align 4
  %13 = alloca i32, align 4
  %14 = alloca i32, align 4
  %15 = alloca i32, align 4
  %16 = alloca i32, align 4
  %17 = alloca i32, align 4
  %18 = alloca i32, align 4
  %19 = alloca i32, align 4
  %20 = alloca i32, align 4
  %21 = alloca i32, align 4
  %22 = alloca i32, align 4
  %23 = alloca i32, align 4
  %24 = alloca i32, align 4
  %25 = alloca %"class.cv::Rect_", align 4
  %26 = getelementptr inbounds nuw { i64, i64 }, ptr %9, i32 0, i32 0
  store i64 %0, ptr %26, align 4
  %27 = getelementptr inbounds nuw { i64, i64 }, ptr %9, i32 0, i32 1
  store i64 %1, ptr %27, align 4
  %28 = getelementptr inbounds nuw { i64, i64 }, ptr %10, i32 0, i32 0
  store i64 %2, ptr %28, align 4
  %29 = getelementptr inbounds nuw { i64, i64 }, ptr %10, i32 0, i32 1
  store i64 %3, ptr %29, align 4
  store i32 %4, ptr %11, align 4, !tbaa !12
  store i32 %5, ptr %12, align 4, !tbaa !12
  store i32 %6, ptr %13, align 4, !tbaa !12
  call void @llvm.lifetime.start.p0(i64 4, ptr %14) #3
  %30 = load i32, ptr %13, align 4, !tbaa !12
  %31 = sdiv i32 %30, 2
  store i32 %31, ptr %14, align 4, !tbaa !12
  call void @llvm.lifetime.start.p0(i64 4, ptr %15) #3
  %32 = load i32, ptr %11, align 4, !tbaa !12
  %33 = load i32, ptr %12, align 4, !tbaa !12
  %34 = add nsw i32 %32, %33
  %35 = sub nsw i32 %34, 1
  store i32 %35, ptr %15, align 4, !tbaa !12
  call void @llvm.lifetime.start.p0(i64 4, ptr %16) #3
  %36 = getelementptr inbounds nuw %"class.cv::Rect_", ptr %9, i32 0, i32 0
  call void @llvm.lifetime.start.p0(i64 4, ptr %17) #3
  %37 = getelementptr inbounds nuw %"class.cv::Rect_", ptr %10, i32 0, i32 0
  %38 = load i32, ptr %37, align 4, !tbaa !139
  %39 = load i32, ptr %15, align 4, !tbaa !12
  %40 = add nsw i32 %38, %39
  store i32 %40, ptr %17, align 4, !tbaa !12
  %41 = call noundef nonnull align 4 dereferenceable(4) ptr @_ZSt3maxIiERKT_S2_S2_(ptr noundef nonnull align 4 dereferenceable(4) %36, ptr noundef nonnull align 4 dereferenceable(4) %17)
  %42 = load i32, ptr %41, align 4, !tbaa !12
  %43 = load i32, ptr %14, align 4, !tbaa !12
  %44 = add nsw i32 %42, %43
  call void @llvm.lifetime.end.p0(i64 4, ptr %17) #3
  store i32 %44, ptr %16, align 4, !tbaa !12
  call void @llvm.lifetime.start.p0(i64 4, ptr %18) #3
  call void @llvm.lifetime.start.p0(i64 4, ptr %19) #3
  %45 = getelementptr inbounds nuw %"class.cv::Rect_", ptr %9, i32 0, i32 0
  %46 = load i32, ptr %45, align 4, !tbaa !139
  %47 = getelementptr inbounds nuw %"class.cv::Rect_", ptr %9, i32 0, i32 2
  %48 = load i32, ptr %47, align 4, !tbaa !141
  %49 = add nsw i32 %46, %48
  store i32 %49, ptr %19, align 4, !tbaa !12
  call void @llvm.lifetime.start.p0(i64 4, ptr %20) #3
  %50 = getelementptr inbounds nuw %"class.cv::Rect_", ptr %10, i32 0, i32 0
  %51 = load i32, ptr %50, align 4, !tbaa !139
  %52 = getelementptr inbounds nuw %"class.cv::Rect_", ptr %10, i32 0, i32 2
  %53 = load i32, ptr %52, align 4, !tbaa !141
  %54 = add nsw i32 %51, %53
  store i32 %54, ptr %20, align 4, !tbaa !12
  %55 = call noundef nonnull align 4 dereferenceable(4) ptr @_ZSt3minIiERKT_S2_S2_(ptr noundef nonnull align 4 dereferenceable(4) %19, ptr noundef nonnull align 4 dereferenceable(4) %20)
  %56 = load i32, ptr %55, align 4, !tbaa !12
  %57 = load i32, ptr %14, align 4, !tbaa !12
  %58 = sub nsw i32 %56, %57
  call void @llvm.lifetime.end.p0(i64 4, ptr %20) #3
  call void @llvm.lifetime.end.p0(i64 4, ptr %19) #3
  store i32 %58, ptr %18, align 4, !tbaa !12
  call void @llvm.lifetime.start.p0(i64 4, ptr %21) #3
  %59 = getelementptr inbounds nuw %"class.cv::Rect_", ptr %9, i32 0, i32 1
  %60 = getelementptr inbounds nuw %"class.cv::Rect_", ptr %10, i32 0, i32 1
  %61 = call noundef nonnull align 4 dereferenceable(4) ptr @_ZSt3maxIiERKT_S2_S2_(ptr noundef nonnull align 4 dereferenceable(4) %59, ptr noundef nonnull align 4 dereferenceable(4) %60)
  %62 = load i32, ptr %61, align 4, !tbaa !12
  %63 = load i32, ptr %14, align 4, !tbaa !12
  %64 = add nsw i32 %62, %63
  store i32 %64, ptr %21, align 4, !tbaa !12
  call void @llvm.lifetime.start.p0(i64 4, ptr %22) #3
  call void @llvm.lifetime.start.p0(i64 4, ptr %23) #3
  %65 = getelementptr inbounds nuw %"class.cv::Rect_", ptr %9, i32 0, i32 1
  %66 = load i32, ptr %65, align 4, !tbaa !142
  %67 = getelementptr inbounds nuw %"class.cv::Rect_", ptr %9, i32 0, i32 3
  %68 = load i32, ptr %67, align 4, !tbaa !143
  %69 = add nsw i32 %66, %68
  store i32 %69, ptr %23, align 4, !tbaa !12
  call void @llvm.lifetime.start.p0(i64 4, ptr %24) #3
  %70 = getelementptr inbounds nuw %"class.cv::Rect_", ptr %10, i32 0, i32 1
  %71 = load i32, ptr %70, align 4, !tbaa !142
  %72 = getelementptr inbounds nuw %"class.cv::Rect_", ptr %10, i32 0, i32 3
  %73 = load i32, ptr %72, align 4, !tbaa !143
  %74 = add nsw i32 %71, %73
  store i32 %74, ptr %24, align 4, !tbaa !12
  %75 = call noundef nonnull align 4 dereferenceable(4) ptr @_ZSt3minIiERKT_S2_S2_(ptr noundef nonnull align 4 dereferenceable(4) %23, ptr noundef nonnull align 4 dereferenceable(4) %24)
  %76 = load i32, ptr %75, align 4, !tbaa !12
  %77 = load i32, ptr %14, align 4, !tbaa !12
  %78 = sub nsw i32 %76, %77
  call void @llvm.lifetime.end.p0(i64 4, ptr %24) #3
  call void @llvm.lifetime.end.p0(i64 4, ptr %23) #3
  store i32 %78, ptr %22, align 4, !tbaa !12
  call void @llvm.lifetime.start.p0(i64 16, ptr %25) #3
  %79 = load i32, ptr %16, align 4, !tbaa !12
  %80 = load i32, ptr %21, align 4, !tbaa !12
  %81 = load i32, ptr %18, align 4, !tbaa !12
  %82 = load i32, ptr %16, align 4, !tbaa !12
  %83 = sub nsw i32 %81, %82
  %84 = load i32, ptr %22, align 4, !tbaa !12
  %85 = load i32, ptr %21, align 4, !tbaa !12
  %86 = sub nsw i32 %84, %85
  call void @_ZN2cv5Rect_IiEC2Eiiii(ptr noundef nonnull align 4 dereferenceable(16) %25, i32 noundef %79, i32 noundef %80, i32 noundef %83, i32 noundef %86)
  %87 = getelementptr inbounds nuw %"class.cv::Rect_", ptr %25, i32 0, i32 2
  %88 = load i32, ptr %87, align 4, !tbaa !141
  %89 = icmp sgt i32 %88, 0
  br i1 %89, label %90, label %95

90:                                               ; preds = %7
  %91 = getelementptr inbounds nuw %"class.cv::Rect_", ptr %25, i32 0, i32 3
  %92 = load i32, ptr %91, align 4, !tbaa !143
  %93 = icmp sgt i32 %92, 0
  br i1 %93, label %94, label %95

94:                                               ; preds = %90
  call void @llvm.memcpy.p0.p0.i64(ptr align 4 %8, ptr align 4 %25, i64 16, i1 false), !tbaa.struct !144
  br label %96

95:                                               ; preds = %90, %7
  call void @_ZN2cv5Rect_IiEC2Ev(ptr noundef nonnull align 4 dereferenceable(16) %8)
  br label %96

96:                                               ; preds = %95, %94
  call void @llvm.lifetime.end.p0(i64 16, ptr %25) #3
  call void @llvm.lifetime.end.p0(i64 4, ptr %22) #3
  call void @llvm.lifetime.end.p0(i64 4, ptr %21) #3
  call void @llvm.lifetime.end.p0(i64 4, ptr %18) #3
  call void @llvm.lifetime.end.p0(i64 4, ptr %16) #3
  call void @llvm.lifetime.end.p0(i64 4, ptr %15) #3
  call void @llvm.lifetime.end.p0(i64 4, ptr %14) #3
  %97 = load { i64, i64 }, ptr %8, align 4
  ret { i64, i64 } %97
}