; Function Attrs: mustprogress nofree norecurse nosync nounwind willreturn memory(none) uwtable
define { i64, i64 } @_ZN2cv20getValidDisparityROIENS_5Rect_IiEES1_iii(i64 %0, i64 %1, i64 %2, i64 %3, i32 noundef %4, i32 noundef %5, i32 noundef %6) local_unnamed_addr #9 {
  %.sroa.037.0.extract.trunc = trunc i64 %0 to i32
  %.sroa.439.0.extract.shift = lshr i64 %0, 32
  %.sroa.439.0.extract.trunc = trunc nuw i64 %.sroa.439.0.extract.shift to i32
  %.sroa.741.8.extract.trunc = trunc i64 %1 to i32
  %.sroa.9.8.extract.shift = lshr i64 %1, 32
  %.sroa.9.8.extract.trunc = trunc nuw i64 %.sroa.9.8.extract.shift to i32
  %.sroa.030.0.extract.trunc = trunc i64 %2 to i32
  %.sroa.3.0.extract.shift = lshr i64 %2, 32
  %.sroa.3.0.extract.trunc = trunc nuw i64 %.sroa.3.0.extract.shift to i32
  %.sroa.6.8.extract.trunc = trunc i64 %3 to i32
  %.sroa.8.8.extract.shift = lshr i64 %3, 32
  %.sroa.8.8.extract.trunc = trunc nuw i64 %.sroa.8.8.extract.shift to i32
  %8 = sdiv i32 %6, 2
  %9 = add i32 %.sroa.030.0.extract.trunc, -1
  %10 = add i32 %9, %4
  %11 = add i32 %10, %5
  %.sroa.speculated27 = tail call i32 @llvm.smax.i32(i32 %11, i32 %.sroa.037.0.extract.trunc)
  %12 = add nsw i32 %.sroa.speculated27, %8
  %13 = add nsw i32 %.sroa.741.8.extract.trunc, %.sroa.037.0.extract.trunc
  %14 = add nsw i32 %.sroa.6.8.extract.trunc, %.sroa.030.0.extract.trunc
  %.sroa.speculated22 = tail call i32 @llvm.smin.i32(i32 %14, i32 %13)
  %.sroa.speculated34 = tail call i32 @llvm.smax.i32(i32 %.sroa.439.0.extract.trunc, i32 %.sroa.3.0.extract.trunc)
  %15 = add nsw i32 %8, %.sroa.speculated34
  %16 = add nsw i32 %.sroa.9.8.extract.trunc, %.sroa.439.0.extract.trunc
  %17 = add nsw i32 %.sroa.8.8.extract.trunc, %.sroa.3.0.extract.trunc
  %.sroa.speculated = tail call i32 @llvm.smin.i32(i32 %17, i32 %16)
  %18 = add i32 %8, %12
  %19 = sub i32 %.sroa.speculated22, %18
  %20 = add i32 %8, %15
  %21 = sub i32 %.sroa.speculated, %20
  %22 = icmp sgt i32 %19, 0
  %23 = icmp sgt i32 %21, 0
  %or.cond = select i1 %22, i1 %23, i1 false
  %.sroa.443.8.insert.ext = zext nneg i32 %19 to i64
  %.sroa.443.12.insert.ext = zext nneg i32 %21 to i64
  %.sroa.443.12.insert.shift = shl nuw nsw i64 %.sroa.443.12.insert.ext, 32
  %.sroa.443.12.insert.insert = or disjoint i64 %.sroa.443.12.insert.shift, %.sroa.443.8.insert.ext
  %.sroa.443.0 = select i1 %or.cond, i64 %.sroa.443.12.insert.insert, i64 0
  %24 = zext i32 %15 to i64
  %25 = shl nuw i64 %24, 32
  %26 = zext i32 %12 to i64
  %27 = or disjoint i64 %25, %26
  %.sroa.042.sroa.0.0.insert.insert = select i1 %or.cond, i64 %27, i64 0
  %.fca.0.insert = insertvalue { i64, i64 } poison, i64 %.sroa.042.sroa.0.0.insert.insert, 0
  %.fca.1.insert = insertvalue { i64, i64 } %.fca.0.insert, i64 %.sroa.443.0, 1
  ret { i64, i64 } %.fca.1.insert
}